target datalayout = "e-m:e-p270:32:32-p271:32:32-p272:64:64-i64:64-i128:128-f80:128-n8:16:32:64-S128"
target triple = "x86_64-pc-linux-gnu"

@libctx = internal global ptr null, align 8
@.str.24 = private unnamed_addr constant [34 x i8] c"../openssl/test/evp_libctx_test.c\00", align 1
@.str.34 = private unnamed_addr constant [2 x i8] c"0\00", align 1
@test_dsa_param_keygen.bn = internal global [3 x ptr] [ptr @ossl_bignum_dh2048_256_p, ptr @ossl_bignum_dh2048_256_q, ptr @ossl_bignum_dh2048_256_g], align 16
@.str.36 = private unnamed_addr constant [39 x i8] c"Testing with (p, q, g) = (%s, %s, %s)\0A\00", align 1
@.str.37 = private unnamed_addr constant [27 x i8] c"pkey_parm = EVP_PKEY_new()\00", align 1
@.str.38 = private unnamed_addr constant [16 x i8] c"dsa = DSA_new()\00", align 1
@.str.39 = private unnamed_addr constant [21 x i8] c"p = BN_dup(bn[pind])\00", align 1
@.str.40 = private unnamed_addr constant [21 x i8] c"q = BN_dup(bn[qind])\00", align 1
@.str.41 = private unnamed_addr constant [21 x i8] c"g = BN_dup(bn[gind])\00", align 1
@.str.42 = private unnamed_addr constant [27 x i8] c"DSA_set0_pqg(dsa, p, q, g)\00", align 1
@.str.43 = private unnamed_addr constant [36 x i8] c"EVP_PKEY_assign_DSA(pkey_parm, dsa)\00", align 1
@.str.44 = private unnamed_addr constant [62 x i8] c"gen_ctx = EVP_PKEY_CTX_new_from_pkey(libctx, pkey_parm, NULL)\00", align 1
@.str.45 = private unnamed_addr constant [30 x i8] c"EVP_PKEY_keygen_init(gen_ctx)\00", align 1
@.str.46 = private unnamed_addr constant [32 x i8] c"EVP_PKEY_keygen(gen_ctx, &pkey)\00", align 1
@.str.47 = private unnamed_addr constant [9 x i8] c"expected\00", align 1
@.str.48 = private unnamed_addr constant [28 x i8] c"dup_pk = EVP_PKEY_dup(pkey)\00", align 1
@.str.49 = private unnamed_addr constant [26 x i8] c"EVP_PKEY_eq(pkey, dup_pk)\00", align 1
@.str.50 = private unnamed_addr constant [2 x i8] c"1\00", align 1
@__const.getname.name = private unnamed_addr constant [3 x ptr] [ptr @.str.51, ptr @.str.52, ptr @.str.53], align 16
@.str.54 = private unnamed_addr constant [2 x i8] c"?\00", align 1

; Function Attrs: nounwind uwtable
define internal ptr @getname(i32 noundef %0) #0 {
  %2 = alloca ptr, align 8
  %3 = alloca i32, align 4
  %4 = alloca [3 x ptr], align 16
  %5 = alloca i32, align 4
  store i32 %0, ptr %3, align 4, !tbaa !9
  call void @llvm.lifetime.start.p0(i64 24, ptr %4) #7
  call void @llvm.memcpy.p0.p0.i64(ptr align 16 %4, ptr align 16 @__const.getname.name, i64 24, i1 false)
  %6 = load i32, ptr %3, align 4, !tbaa !9
  %7 = icmp sge i32 %6, 0
  br i1 %7, label %8, label %16

8:                                                ; preds = %1
  %9 = load i32, ptr %3, align 4, !tbaa !9
  %10 = icmp slt i32 %9, 3
  br i1 %10, label %11, label %16

11:                                               ; preds = %8
  %12 = load i32, ptr %3, align 4, !tbaa !9
  %13 = sext i32 %12 to i64
  %14 = getelementptr inbounds [3 x ptr], ptr %4, i64 0, i64 %13
  %15 = load ptr, ptr %14, align 8, !tbaa !4
  store ptr %15, ptr %2, align 8
  store i32 1, ptr %5, align 4
  br label %17

16:                                               ; preds = %8, %1
  store ptr @.str.54, ptr %2, align 8
  store i32 1, ptr %5, align 4
  br label %17

17:                                               ; preds = %16, %11
  call void @llvm.lifetime.end.p0(i64 24, ptr %4) #7
  %18 = load ptr, ptr %2, align 8
  ret ptr %18
}

; Function Attrs: nounwind uwtable
define internal i32 @test_dsa_param_keygen(i32 noundef %0) #0 {
  %2 = alloca i32, align 4
  %3 = alloca i32, align 4
  %4 = alloca i32, align 4
  %5 = alloca ptr, align 8
  %6 = alloca ptr, align 8
  %7 = alloca ptr, align 8
  %8 = alloca ptr, align 8
  %9 = alloca ptr, align 8
  %10 = alloca i32, align 4
  %11 = alloca i32, align 4
  %12 = alloca i32, align 4
  %13 = alloca ptr, align 8
  %14 = alloca ptr, align 8
  %15 = alloca ptr, align 8
  store i32 %0, ptr %2, align 4, !tbaa !9
  call void @llvm.lifetime.start.p0(i64 4, ptr %3) #7
  store i32 0, ptr %3, align 4, !tbaa !9
  call void @llvm.lifetime.start.p0(i64 4, ptr %4) #7
  call void @llvm.lifetime.start.p0(i64 8, ptr %5) #7
  store ptr null, ptr %5, align 8, !tbaa !19
  call void @llvm.lifetime.start.p0(i64 8, ptr %6) #7
  store ptr null, ptr %6, align 8, !tbaa !21
  call void @llvm.lifetime.start.p0(i64 8, ptr %7) #7
  store ptr null, ptr %7, align 8, !tbaa !21
  call void @llvm.lifetime.start.p0(i64 8, ptr %8) #7
  store ptr null, ptr %8, align 8, !tbaa !21
  call void @llvm.lifetime.start.p0(i64 8, ptr %9) #7
  store ptr null, ptr %9, align 8, !tbaa !23
  call void @llvm.lifetime.start.p0(i64 4, ptr %10) #7
  call void @llvm.lifetime.start.p0(i64 4, ptr %11) #7
  call void @llvm.lifetime.start.p0(i64 4, ptr %12) #7
  call void @llvm.lifetime.start.p0(i64 8, ptr %13) #7
  store ptr null, ptr %13, align 8, !tbaa !25
  call void @llvm.lifetime.start.p0(i64 8, ptr %14) #7
  store ptr null, ptr %14, align 8, !tbaa !25
  call void @llvm.lifetime.start.p0(i64 8, ptr %15) #7
  store ptr null, ptr %15, align 8, !tbaa !25
  %16 = load i32, ptr %2, align 4, !tbaa !9
  %17 = sdiv i32 %16, 9
  store i32 %17, ptr %10, align 4, !tbaa !9
  %18 = load i32, ptr %2, align 4, !tbaa !9
  %19 = sdiv i32 %18, 3
  %20 = srem i32 %19, 3
  store i32 %20, ptr %11, align 4, !tbaa !9
  %21 = load i32, ptr %2, align 4, !tbaa !9
  %22 = srem i32 %21, 3
  store i32 %22, ptr %12, align 4, !tbaa !9
  %23 = load i32, ptr %10, align 4, !tbaa !9
  %24 = icmp eq i32 %23, 0
  br i1 %24, label %25, label %31

25:                                               ; preds = %1
  %26 = load i32, ptr %11, align 4, !tbaa !9
  %27 = icmp eq i32 %26, 1
  br i1 %27, label %28, label %31

28:                                               ; preds = %25
  %29 = load i32, ptr %12, align 4, !tbaa !9
  %30 = icmp eq i32 %29, 2
  br label %31

31:                                               ; preds = %28, %25, %1
  %32 = phi i1 [ false, %25 ], [ false, %1 ], [ %30, %28 ]
  %33 = zext i1 %32 to i32
  store i32 %33, ptr %4, align 4, !tbaa !9
  %34 = load i32, ptr %10, align 4, !tbaa !9
  %35 = call ptr @getname(i32 noundef %34)
  %36 = load i32, ptr %11, align 4, !tbaa !9
  %37 = call ptr @getname(i32 noundef %36)
  %38 = load i32, ptr %12, align 4, !tbaa !9
  %39 = call ptr @getname(i32 noundef %38)
  call void (ptr, ...) @test_note(ptr noundef @.str.36, ptr noundef %35, ptr noundef %37, ptr noundef %39)
  %40 = call ptr @EVP_PKEY_new()
  store ptr %40, ptr %6, align 8, !tbaa !21
  %41 = call i32 @test_ptr(ptr noundef @.str.24, i32 noundef 145, ptr noundef @.str.37, ptr noundef %40)
  %42 = icmp ne i32 %41, 0
  br i1 %42, label %43, label %81

43:                                               ; preds = %31
  %44 = call ptr @DSA_new()
  store ptr %44, ptr %9, align 8, !tbaa !23
  %45 = call i32 @test_ptr(ptr noundef @.str.24, i32 noundef 146, ptr noundef @.str.38, ptr noundef %44)
  %46 = icmp ne i32 %45, 0
  br i1 %46, label %47, label %81

47:                                               ; preds = %43
  %48 = load i32, ptr %10, align 4, !tbaa !9
  %49 = sext i32 %48 to i64
  %50 = getelementptr inbounds [3 x ptr], ptr @test_dsa_param_keygen.bn, i64 0, i64 %49
  %51 = load ptr, ptr %50, align 8, !tbaa !25
  %52 = call ptr @BN_dup(ptr noundef %51)
  store ptr %52, ptr %13, align 8, !tbaa !25
  %53 = call i32 @test_ptr(ptr noundef @.str.24, i32 noundef 147, ptr noundef @.str.39, ptr noundef %52)
  %54 = icmp ne i32 %53, 0
  br i1 %54, label %55, label %81

55:                                               ; preds = %47
  %56 = load i32, ptr %11, align 4, !tbaa !9
  %57 = sext i32 %56 to i64
  %58 = getelementptr inbounds [3 x ptr], ptr @test_dsa_param_keygen.bn, i64 0, i64 %57
  %59 = load ptr, ptr %58, align 8, !tbaa !25
  %60 = call ptr @BN_dup(ptr noundef %59)
  store ptr %60, ptr %14, align 8, !tbaa !25
  %61 = call i32 @test_ptr(ptr noundef @.str.24, i32 noundef 148, ptr noundef @.str.40, ptr noundef %60)
  %62 = icmp ne i32 %61, 0
  br i1 %62, label %63, label %81

63:                                               ; preds = %55
  %64 = load i32, ptr %12, align 4, !tbaa !9
  %65 = sext i32 %64 to i64
  %66 = getelementptr inbounds [3 x ptr], ptr @test_dsa_param_keygen.bn, i64 0, i64 %65
  %67 = load ptr, ptr %66, align 8, !tbaa !25
  %68 = call ptr @BN_dup(ptr noundef %67)
  store ptr %68, ptr %15, align 8, !tbaa !25
  %69 = call i32 @test_ptr(ptr noundef @.str.24, i32 noundef 149, ptr noundef @.str.41, ptr noundef %68)
  %70 = icmp ne i32 %69, 0
  br i1 %70, label %71, label %81

71:                                               ; preds = %63
  %72 = load ptr, ptr %9, align 8, !tbaa !23
  %73 = load ptr, ptr %13, align 8, !tbaa !25
  %74 = load ptr, ptr %14, align 8, !tbaa !25
  %75 = load ptr, ptr %15, align 8, !tbaa !25
  %76 = call i32 @DSA_set0_pqg(ptr noundef %72, ptr noundef %73, ptr noundef %74, ptr noundef %75)
  %77 = icmp ne i32 %76, 0
  %78 = zext i1 %77 to i32
  %79 = call i32 @test_true(ptr noundef @.str.24, i32 noundef 150, ptr noundef @.str.42, i32 noundef %78)
  %80 = icmp ne i32 %79, 0
  br i1 %80, label %82, label %81

81:                                               ; preds = %71, %63, %55, %47, %43, %31
  br label %126

82:                                               ; preds = %71
  store ptr null, ptr %15, align 8, !tbaa !25
  store ptr null, ptr %14, align 8, !tbaa !25
  store ptr null, ptr %13, align 8, !tbaa !25
  %83 = load ptr, ptr %6, align 8, !tbaa !21
  %84 = load ptr, ptr %9, align 8, !tbaa !23
  %85 = call i32 @EVP_PKEY_assign(ptr noundef %83, i32 noundef 116, ptr noundef %84)
  %86 = icmp ne i32 %85, 0
  %87 = zext i1 %86 to i32
  %88 = call i32 @test_true(ptr noundef @.str.24, i32 noundef 154, ptr noundef @.str.43, i32 noundef %87)
  %89 = icmp ne i32 %88, 0
  br i1 %89, label %91, label %90

90:                                               ; preds = %82
  br label %126

91:                                               ; preds = %82
  store ptr null, ptr %9, align 8, !tbaa !23
  %92 = load ptr, ptr @libctx, align 8, !tbaa !13
  %93 = load ptr, ptr %6, align 8, !tbaa !21
  %94 = call ptr @EVP_PKEY_CTX_new_from_pkey(ptr noundef %92, ptr noundef %93, ptr noundef null)
  store ptr %94, ptr %5, align 8, !tbaa !19
  %95 = call i32 @test_ptr(ptr noundef @.str.24, i32 noundef 158, ptr noundef @.str.44, ptr noundef %94)
  %96 = icmp ne i32 %95, 0
  br i1 %96, label %97, label %108

97:                                               ; preds = %91
  %98 = load ptr, ptr %5, align 8, !tbaa !19
  %99 = call i32 @EVP_PKEY_keygen_init(ptr noundef %98)
  %100 = call i32 @test_int_gt(ptr noundef @.str.24, i32 noundef 159, ptr noundef @.str.45, ptr noundef @.str.34, i32 noundef %99, i32 noundef 0)
  %101 = icmp ne i32 %100, 0
  br i1 %101, label %102, label %108

102:                                              ; preds = %97
  %103 = load ptr, ptr %5, align 8, !tbaa !19
  %104 = call i32 @EVP_PKEY_keygen(ptr noundef %103, ptr noundef %7)
  %105 = load i32, ptr %4, align 4, !tbaa !9
  %106 = call i32 @test_int_eq(ptr noundef @.str.24, i32 noundef 160, ptr noundef @.str.46, ptr noundef @.str.47, i32 noundef %104, i32 noundef %105)
  %107 = icmp ne i32 %106, 0
  br i1 %107, label %109, label %108

108:                                              ; preds = %102, %97, %91
  br label %126

109:                                              ; preds = %102
  %110 = load i32, ptr %4, align 4, !tbaa !9
  %111 = icmp ne i32 %110, 0
  br i1 %111, label %112, label %125

112:                                              ; preds = %109
  %113 = load ptr, ptr %7, align 8, !tbaa !21
  %114 = call ptr @EVP_PKEY_dup(ptr noundef %113)
  store ptr %114, ptr %8, align 8, !tbaa !21
  %115 = call i32 @test_ptr(ptr noundef @.str.24, i32 noundef 164, ptr noundef @.str.48, ptr noundef %114)
  %116 = icmp ne i32 %115, 0
  br i1 %116, label %117, label %123

117:                                              ; preds = %112
  %118 = load ptr, ptr %7, align 8, !tbaa !21
  %119 = load ptr, ptr %8, align 8, !tbaa !21
  %120 = call i32 @EVP_PKEY_eq(ptr noundef %118, ptr noundef %119)
  %121 = call i32 @test_int_eq(ptr noundef @.str.24, i32 noundef 165, ptr noundef @.str.49, ptr noundef @.str.50, i32 noundef %120, i32 noundef 1)
  %122 = icmp ne i32 %121, 0
  br i1 %122, label %124, label %123

123:                                              ; preds = %117, %112
  br label %126

124:                                              ; preds = %117
  br label %125

125:                                              ; preds = %124, %109
  store i32 1, ptr %3, align 4, !tbaa !9
  br label %126

126:                                              ; preds = %125, %123, %108, %90, %81
  %127 = load ptr, ptr %7, align 8, !tbaa !21
  call void @EVP_PKEY_free(ptr noundef %127)
  %128 = load ptr, ptr %8, align 8, !tbaa !21
  call void @EVP_PKEY_free(ptr noundef %128)
  %129 = load ptr, ptr %5, align 8, !tbaa !19
  call void @EVP_PKEY_CTX_free(ptr noundef %129)
  %130 = load ptr, ptr %6, align 8, !tbaa !21
  call void @EVP_PKEY_free(ptr noundef %130)
  %131 = load ptr, ptr %9, align 8, !tbaa !23
  call void @DSA_free(ptr noundef %131)
  %132 = load ptr, ptr %15, align 8, !tbaa !25
  call void @BN_free(ptr noundef %132)
  %133 = load ptr, ptr %14, align 8, !tbaa !25
  call void @BN_free(ptr noundef %133)
  %134 = load ptr, ptr %13, align 8, !tbaa !25
  call void @BN_free(ptr noundef %134)
  %135 = load i32, ptr %3, align 4, !tbaa !9
  call void @llvm.lifetime.end.p0(i64 8, ptr %15) #7
  call void @llvm.lifetime.end.p0(i64 8, ptr %14) #7
  call void @llvm.lifetime.end.p0(i64 8, ptr %13) #7
  call void @llvm.lifetime.end.p0(i64 4, ptr %12) #7
  call void @llvm.lifetime.end.p0(i64 4, ptr %11) #7
  call void @llvm.lifetime.end.p0(i64 4, ptr %10) #7
  call void @llvm.lifetime.end.p0(i64 8, ptr %9) #7
  call void @llvm.lifetime.end.p0(i64 8, ptr %8) #7
  call void @llvm.lifetime.end.p0(i64 8, ptr %7) #7
  call void @llvm.lifetime.end.p0(i64 8, ptr %6) #7
  call void @llvm.lifetime.end.p0(i64 8, ptr %5) #7
  call void @llvm.lifetime.end.p0(i64 4, ptr %4) #7
  call void @llvm.lifetime.end.p0(i64 4, ptr %3) #7
  ret i32 %135
}