; Function Attrs: nounwind uwtable
define internal range(i32 0, 2) i32 @test_dsa_param_keygen(i32 noundef %0) #1 {
  %2 = alloca ptr, align 8
  call void @llvm.lifetime.start.p0(i64 8, ptr nonnull %2) #7
  store ptr null, ptr %2, align 8, !tbaa !13
  %3 = sdiv i32 %0, 9
  %4 = sdiv i32 %0, 3
  %5 = srem i32 %4, 3
  %6 = srem i32 %0, 3
  %.off = add i32 %0, 8
  %7 = icmp ult i32 %.off, 17
  %8 = icmp eq i32 %5, 1
  %or.cond = and i1 %7, %8
  %9 = icmp eq i32 %6, 2
  %spec.select = and i1 %9, %or.cond
  %10 = zext i1 %spec.select to i32
  %or.cond.i = icmp ult i32 %3, 3
  br i1 %or.cond.i, label %11, label %getname.exit

11:                                               ; preds = %1
  %12 = zext nneg i32 %3 to i64
  %13 = getelementptr inbounds nuw [3 x ptr], ptr @__const.getname.name, i64 0, i64 %12
  %14 = load ptr, ptr %13, align 8, !tbaa !15
  br label %getname.exit

getname.exit:                                     ; preds = %1, %11
  %.0.i = phi ptr [ %14, %11 ], [ @.str.54, %1 ]
  %or.cond.i50 = icmp sgt i32 %5, -1
  br i1 %or.cond.i50, label %15, label %getname.exit52

15:                                               ; preds = %getname.exit
  %16 = zext nneg i32 %5 to i64
  %17 = getelementptr inbounds nuw [3 x ptr], ptr @__const.getname.name, i64 0, i64 %16
  %18 = load ptr, ptr %17, align 8, !tbaa !15
  br label %getname.exit52

getname.exit52:                                   ; preds = %getname.exit, %15
  %.0.i51 = phi ptr [ %18, %15 ], [ @.str.54, %getname.exit ]
  %or.cond.i53 = icmp sgt i32 %6, -1
  br i1 %or.cond.i53, label %19, label %getname.exit55

19:                                               ; preds = %getname.exit52
  %20 = zext nneg i32 %6 to i64
  %21 = getelementptr inbounds nuw [3 x ptr], ptr @__const.getname.name, i64 0, i64 %20
  %22 = load ptr, ptr %21, align 8, !tbaa !15
  br label %getname.exit55

getname.exit55:                                   ; preds = %getname.exit52, %19
  %.0.i54 = phi ptr [ %22, %19 ], [ @.str.54, %getname.exit52 ]
  tail call void (ptr, ...) @test_note(ptr noundef nonnull @.str.36, ptr noundef %.0.i, ptr noundef %.0.i51, ptr noundef %.0.i54) #7
  %23 = tail call ptr @EVP_PKEY_new() #7
  %24 = tail call i32 @test_ptr(ptr noundef nonnull @.str.24, i32 noundef 145, ptr noundef nonnull @.str.37, ptr noundef %23) #7
  %.not = icmp eq i32 %24, 0
  br i1 %.not, label %75, label %25

25:                                               ; preds = %getname.exit55
  %26 = tail call ptr @DSA_new() #7
  %27 = tail call i32 @test_ptr(ptr noundef nonnull @.str.24, i32 noundef 146, ptr noundef nonnull @.str.38, ptr noundef %26) #7
  %.not38 = icmp eq i32 %27, 0
  br i1 %.not38, label %75, label %28

28:                                               ; preds = %25
  %29 = sext i32 %3 to i64
  %30 = getelementptr inbounds [3 x ptr], ptr @test_dsa_param_keygen.bn, i64 0, i64 %29
  %31 = load ptr, ptr %30, align 8, !tbaa !17
  %32 = tail call ptr @BN_dup(ptr noundef %31) #7
  %33 = tail call i32 @test_ptr(ptr noundef nonnull @.str.24, i32 noundef 147, ptr noundef nonnull @.str.39, ptr noundef %32) #7
  %.not39 = icmp eq i32 %33, 0
  br i1 %.not39, label %75, label %34

34:                                               ; preds = %28
  %35 = sext i32 %5 to i64
  %36 = getelementptr inbounds [3 x ptr], ptr @test_dsa_param_keygen.bn, i64 0, i64 %35
  %37 = load ptr, ptr %36, align 8, !tbaa !17
  %38 = tail call ptr @BN_dup(ptr noundef %37) #7
  %39 = tail call i32 @test_ptr(ptr noundef nonnull @.str.24, i32 noundef 148, ptr noundef nonnull @.str.40, ptr noundef %38) #7
  %.not40 = icmp eq i32 %39, 0
  br i1 %.not40, label %75, label %40

40:                                               ; preds = %34
  %41 = sext i32 %6 to i64
  %42 = getelementptr inbounds [3 x ptr], ptr @test_dsa_param_keygen.bn, i64 0, i64 %41
  %43 = load ptr, ptr %42, align 8, !tbaa !17
  %44 = tail call ptr @BN_dup(ptr noundef %43) #7
  %45 = tail call i32 @test_ptr(ptr noundef nonnull @.str.24, i32 noundef 149, ptr noundef nonnull @.str.41, ptr noundef %44) #7
  %.not41 = icmp eq i32 %45, 0
  br i1 %.not41, label %75, label %46

46:                                               ; preds = %40
  %47 = tail call i32 @DSA_set0_pqg(ptr noundef %26, ptr noundef %32, ptr noundef %38, ptr noundef %44) #7
  %48 = icmp ne i32 %47, 0
  %49 = zext i1 %48 to i32
  %50 = tail call i32 @test_true(ptr noundef nonnull @.str.24, i32 noundef 150, ptr noundef nonnull @.str.42, i32 noundef %49) #7
  %.not42 = icmp eq i32 %50, 0
  br i1 %.not42, label %75, label %51

51:                                               ; preds = %46
  %52 = tail call i32 @EVP_PKEY_assign(ptr noundef %23, i32 noundef 116, ptr noundef %26) #7
  %53 = icmp ne i32 %52, 0
  %54 = zext i1 %53 to i32
  %55 = tail call i32 @test_true(ptr noundef nonnull @.str.24, i32 noundef 154, ptr noundef nonnull @.str.43, i32 noundef %54) #7
  %.not43 = icmp eq i32 %55, 0
  br i1 %.not43, label %75, label %56

56:                                               ; preds = %51
  %57 = load ptr, ptr @libctx, align 8, !tbaa !6
  %58 = tail call ptr @EVP_PKEY_CTX_new_from_pkey(ptr noundef %57, ptr noundef %23, ptr noundef null) #7
  %59 = tail call i32 @test_ptr(ptr noundef nonnull @.str.24, i32 noundef 158, ptr noundef nonnull @.str.44, ptr noundef %58) #7
  %.not44 = icmp eq i32 %59, 0
  br i1 %.not44, label %75, label %60

60:                                               ; preds = %56
  %61 = tail call i32 @EVP_PKEY_keygen_init(ptr noundef %58) #7
  %62 = tail call i32 @test_int_gt(ptr noundef nonnull @.str.24, i32 noundef 159, ptr noundef nonnull @.str.45, ptr noundef nonnull @.str.34, i32 noundef %61, i32 noundef 0) #7
  %.not45 = icmp eq i32 %62, 0
  br i1 %.not45, label %75, label %63

63:                                               ; preds = %60
  %64 = call i32 @EVP_PKEY_keygen(ptr noundef %58, ptr noundef nonnull %2) #7
  %65 = call i32 @test_int_eq(ptr noundef nonnull @.str.24, i32 noundef 160, ptr noundef nonnull @.str.46, ptr noundef nonnull @.str.47, i32 noundef %64, i32 noundef %10) #7
  %.not46 = icmp eq i32 %65, 0
  br i1 %.not46, label %75, label %66

66:                                               ; preds = %63
  br i1 %spec.select, label %67, label %75

67:                                               ; preds = %66
  %68 = load ptr, ptr %2, align 8, !tbaa !13
  %69 = call ptr @EVP_PKEY_dup(ptr noundef %68) #7
  %70 = call i32 @test_ptr(ptr noundef nonnull @.str.24, i32 noundef 164, ptr noundef nonnull @.str.48, ptr noundef %69) #7
  %.not47 = icmp eq i32 %70, 0
  br i1 %.not47, label %75, label %71

71:                                               ; preds = %67
  %72 = load ptr, ptr %2, align 8, !tbaa !13
  %73 = call i32 @EVP_PKEY_eq(ptr noundef %72, ptr noundef %69) #7
  %74 = call i32 @test_int_eq(ptr noundef nonnull @.str.24, i32 noundef 165, ptr noundef nonnull @.str.49, ptr noundef nonnull @.str.50, i32 noundef %73, i32 noundef 1) #7
  %.not48 = icmp ne i32 %74, 0
  %spec.select49 = zext i1 %.not48 to i32
  br label %75

75:                                               ; preds = %71, %66, %67, %56, %60, %63, %51, %getname.exit55, %25, %28, %34, %40, %46
  %.037 = phi ptr [ %69, %67 ], [ null, %63 ], [ null, %60 ], [ null, %56 ], [ null, %51 ], [ null, %46 ], [ null, %40 ], [ null, %34 ], [ null, %28 ], [ null, %25 ], [ null, %getname.exit55 ], [ null, %66 ], [ %69, %71 ]
  %.036 = phi ptr [ null, %67 ], [ null, %63 ], [ null, %60 ], [ null, %56 ], [ %26, %51 ], [ %26, %46 ], [ %26, %40 ], [ %26, %34 ], [ %26, %28 ], [ %26, %25 ], [ null, %getname.exit55 ], [ null, %66 ], [ null, %71 ]
  %.035 = phi ptr [ %58, %67 ], [ %58, %63 ], [ %58, %60 ], [ %58, %56 ], [ null, %51 ], [ null, %46 ], [ null, %40 ], [ null, %34 ], [ null, %28 ], [ null, %25 ], [ null, %getname.exit55 ], [ %58, %66 ], [ %58, %71 ]
  %.034 = phi i32 [ 0, %67 ], [ 0, %63 ], [ 0, %60 ], [ 0, %56 ], [ 0, %51 ], [ 0, %46 ], [ 0, %40 ], [ 0, %34 ], [ 0, %28 ], [ 0, %25 ], [ 0, %getname.exit55 ], [ 1, %66 ], [ %spec.select49, %71 ]
  %.033 = phi ptr [ null, %67 ], [ null, %63 ], [ null, %60 ], [ null, %56 ], [ null, %51 ], [ %32, %46 ], [ %32, %40 ], [ %32, %34 ], [ %32, %28 ], [ null, %25 ], [ null, %getname.exit55 ], [ null, %66 ], [ null, %71 ]
  %.032 = phi ptr [ null, %67 ], [ null, %63 ], [ null, %60 ], [ null, %56 ], [ null, %51 ], [ %38, %46 ], [ %38, %40 ], [ %38, %34 ], [ null, %28 ], [ null, %25 ], [ null, %getname.exit55 ], [ null, %66 ], [ null, %71 ]
  %.0 = phi ptr [ null, %67 ], [ null, %63 ], [ null, %60 ], [ null, %56 ], [ null, %51 ], [ %44, %46 ], [ %44, %40 ], [ null, %34 ], [ null, %28 ], [ null, %25 ], [ null, %getname.exit55 ], [ null, %66 ], [ null, %71 ]
  %76 = load ptr, ptr %2, align 8, !tbaa !13
  call void @EVP_PKEY_free(ptr noundef %76) #7
  call void @EVP_PKEY_free(ptr noundef %.037) #7
  call void @EVP_PKEY_CTX_free(ptr noundef %.035) #7
  call void @EVP_PKEY_free(ptr noundef %23) #7
  call void @DSA_free(ptr noundef %.036) #7
  call void @BN_free(ptr noundef %.0) #7
  call void @BN_free(ptr noundef %.032) #7
  call void @BN_free(ptr noundef %.033) #7
  call void @llvm.lifetime.end.p0(i64 8, ptr nonnull %2) #7
  ret i32 %.034
}